
Analog-Board-DAC-Test.elf:     file format elf32-avr

Sections:
Idx Name          Size      VMA       LMA       File off  Algn
  0 .data         0000000e  00800100  00000686  0000071a  2**0
                  CONTENTS, ALLOC, LOAD, DATA
  1 .text         00000686  00000000  00000000  00000094  2**1
                  CONTENTS, ALLOC, LOAD, READONLY, CODE
  2 .bss          00000025  0080010e  0080010e  00000728  2**0
                  ALLOC
  3 .stab         000006cc  00000000  00000000  00000728  2**2
                  CONTENTS, READONLY, DEBUGGING
  4 .stabstr      00000085  00000000  00000000  00000df4  2**0
                  CONTENTS, READONLY, DEBUGGING
  5 .debug_aranges 000000a0  00000000  00000000  00000e80  2**3
                  CONTENTS, READONLY, DEBUGGING
  6 .debug_info   000007fc  00000000  00000000  00000f20  2**0
                  CONTENTS, READONLY, DEBUGGING
  7 .debug_abbrev 00000242  00000000  00000000  0000171c  2**0
                  CONTENTS, READONLY, DEBUGGING
  8 .debug_line   000004d7  00000000  00000000  0000195e  2**0
                  CONTENTS, READONLY, DEBUGGING
  9 .debug_frame  00000108  00000000  00000000  00001e38  2**2
                  CONTENTS, READONLY, DEBUGGING
 10 .debug_str    000002cb  00000000  00000000  00001f40  2**0
                  CONTENTS, READONLY, DEBUGGING
 11 .debug_loc    000002dd  00000000  00000000  0000220b  2**0
                  CONTENTS, READONLY, DEBUGGING

Disassembly of section .text:

00000000 <__vectors>:
   0:	0c 94 32 00 	jmp	0x64	; 0x64 <__ctors_end>
   4:	0c 94 4f 00 	jmp	0x9e	; 0x9e <__bad_interrupt>
   8:	0c 94 4f 00 	jmp	0x9e	; 0x9e <__bad_interrupt>
   c:	0c 94 4f 00 	jmp	0x9e	; 0x9e <__bad_interrupt>
  10:	0c 94 4f 00 	jmp	0x9e	; 0x9e <__bad_interrupt>
  14:	0c 94 14 01 	jmp	0x228	; 0x228 <__vector_5>
  18:	0c 94 4f 00 	jmp	0x9e	; 0x9e <__bad_interrupt>
  1c:	0c 94 4f 00 	jmp	0x9e	; 0x9e <__bad_interrupt>
  20:	0c 94 4f 00 	jmp	0x9e	; 0x9e <__bad_interrupt>
  24:	0c 94 4f 00 	jmp	0x9e	; 0x9e <__bad_interrupt>
  28:	0c 94 4f 00 	jmp	0x9e	; 0x9e <__bad_interrupt>
  2c:	0c 94 4f 00 	jmp	0x9e	; 0x9e <__bad_interrupt>
  30:	0c 94 4f 00 	jmp	0x9e	; 0x9e <__bad_interrupt>
  34:	0c 94 4f 00 	jmp	0x9e	; 0x9e <__bad_interrupt>
  38:	0c 94 4f 00 	jmp	0x9e	; 0x9e <__bad_interrupt>
  3c:	0c 94 4f 00 	jmp	0x9e	; 0x9e <__bad_interrupt>
  40:	0c 94 4f 00 	jmp	0x9e	; 0x9e <__bad_interrupt>
  44:	0c 94 4f 00 	jmp	0x9e	; 0x9e <__bad_interrupt>
  48:	0c 94 4f 00 	jmp	0x9e	; 0x9e <__bad_interrupt>
  4c:	0c 94 4f 00 	jmp	0x9e	; 0x9e <__bad_interrupt>
  50:	0c 94 4f 00 	jmp	0x9e	; 0x9e <__bad_interrupt>
  54:	0c 94 4f 00 	jmp	0x9e	; 0x9e <__bad_interrupt>
  58:	0c 94 4f 00 	jmp	0x9e	; 0x9e <__bad_interrupt>
  5c:	0c 94 4f 00 	jmp	0x9e	; 0x9e <__bad_interrupt>
  60:	0c 94 4f 00 	jmp	0x9e	; 0x9e <__bad_interrupt>

00000064 <__ctors_end>:
  64:	11 24       	eor	r1, r1
  66:	1f be       	out	0x3f, r1	; 63
  68:	cf ef       	ldi	r28, 0xFF	; 255
  6a:	d0 e1       	ldi	r29, 0x10	; 16
  6c:	de bf       	out	0x3e, r29	; 62
  6e:	cd bf       	out	0x3d, r28	; 61

00000070 <__do_copy_data>:
  70:	11 e0       	ldi	r17, 0x01	; 1
  72:	a0 e0       	ldi	r26, 0x00	; 0
  74:	b1 e0       	ldi	r27, 0x01	; 1
  76:	e6 e8       	ldi	r30, 0x86	; 134
  78:	f6 e0       	ldi	r31, 0x06	; 6
  7a:	02 c0       	rjmp	.+4      	; 0x80 <__do_copy_data+0x10>
  7c:	05 90       	lpm	r0, Z+
  7e:	0d 92       	st	X+, r0
  80:	ae 30       	cpi	r26, 0x0E	; 14
  82:	b1 07       	cpc	r27, r17
  84:	d9 f7       	brne	.-10     	; 0x7c <__do_copy_data+0xc>

00000086 <__do_clear_bss>:
  86:	11 e0       	ldi	r17, 0x01	; 1
  88:	ae e0       	ldi	r26, 0x0E	; 14
  8a:	b1 e0       	ldi	r27, 0x01	; 1
  8c:	01 c0       	rjmp	.+2      	; 0x90 <.do_clear_bss_start>

0000008e <.do_clear_bss_loop>:
  8e:	1d 92       	st	X+, r1

00000090 <.do_clear_bss_start>:
  90:	a3 33       	cpi	r26, 0x33	; 51
  92:	b1 07       	cpc	r27, r17
  94:	e1 f7       	brne	.-8      	; 0x8e <.do_clear_bss_loop>
  96:	0e 94 d7 02 	call	0x5ae	; 0x5ae <main>
  9a:	0c 94 41 03 	jmp	0x682	; 0x682 <_exit>

0000009e <__bad_interrupt>:
  9e:	0c 94 00 00 	jmp	0	; 0x0 <__vectors>

000000a2 <_Z8setupDACv>:
	0,
	0
};
void setupDAC(void) //set up DAC
{
	DDRG |= (1<<DAC_WR) | (1<<DAC_RS); //set DAC control bits as outputs
  a2:	83 b3       	in	r24, 0x13	; 19
  a4:	83 60       	ori	r24, 0x03	; 3
  a6:	83 bb       	out	0x13, r24	; 19
	DDRD = 0xFF; //set DAC_BUS_LOW bits to outputs
  a8:	8f ef       	ldi	r24, 0xFF	; 255
  aa:	8a b9       	out	0x0a, r24	; 10
	DDRC |= 0xFF;//set DAC_BUS_HIGH bits to outputs
  ac:	97 b1       	in	r25, 0x07	; 7
  ae:	87 b9       	out	0x07, r24	; 7
	DDRH |= (1<<DAC_MUX_EN0) | (1<<DAC_MUX_EN1) | (1<<DAC_MUX_EN2) | (1<<DAC_MUX_EN3); //set DAC_MUX_EN pins as outputs
  b0:	e9 ed       	ldi	r30, 0xD9	; 217
  b2:	f0 e0       	ldi	r31, 0x00	; 0
  b4:	80 81       	ld	r24, Z
  b6:	8f 60       	ori	r24, 0x0F	; 15
  b8:	80 83       	st	Z, r24
	
	DAC_MUX &= ~((1<<DAC_MUX_EN0) | (1<<DAC_MUX_EN1) | (1<<DAC_MUX_EN2) | (1<<DAC_MUX_EN3)); //disable DG408 VDAC multiplexers 
  ba:	ea ed       	ldi	r30, 0xDA	; 218
  bc:	f0 e0       	ldi	r31, 0x00	; 0
  be:	80 81       	ld	r24, Z
  c0:	80 7f       	andi	r24, 0xF0	; 240
  c2:	80 83       	st	Z, r24
	
	DAC_CTRL |= (1<<DAC_RS) | (1<<DAC_WR); //disable DAC
  c4:	84 b3       	in	r24, 0x14	; 20
  c6:	83 60       	ori	r24, 0x03	; 3
  c8:	84 bb       	out	0x14, r24	; 20
	
	DAC_CTRL &= ~(1<<DAC_RS); //reset DAC
  ca:	a1 98       	cbi	0x14, 1	; 20
	DAC_CTRL |= (1<<DAC_RS);
  cc:	a1 9a       	sbi	0x14, 1	; 20
	
	DAC_CTRL &= ~(1<<DAC_WR); //write DATA - falling edge then rising edge to toggle DAC bits to output register
  ce:	a0 98       	cbi	0x14, 0	; 20
	DAC_CTRL |= (1<<DAC_WR);
  d0:	a0 9a       	sbi	0x14, 0	; 20
}
  d2:	08 95       	ret

000000d4 <_Z7set_dachj>:
void set_dac(uint8_t channel, uint16_t value)
{
	
	
	DAC_BUS_LOW = value & 0b00000011111111; //mask top 6 MSBs to set low byte
  d4:	6b b9       	out	0x0b, r22	; 11
	
	DAC_BUS_HIGH = value >> 8; //shift away bottom LSBs to set high byte
  d6:	78 b9       	out	0x08, r23	; 8
	
	DAC_CTRL &= ~(1<<DAC_WR); //write DATA
  d8:	a0 98       	cbi	0x14, 0	; 20
	DAC_CTRL |= (1<<DAC_WR);
  da:	a0 9a       	sbi	0x14, 0	; 20
	
	DATA_BUS = channel; //set channel for DG408 multiplexer output
  dc:	82 b9       	out	0x02, r24	; 2
	#else
		//round up by default
		__ticks_dc = (uint32_t)(ceil(fabs(__tmp)));
	#endif

	__builtin_avr_delay_cycles(__ticks_dc);
  de:	2d e0       	ldi	r18, 0x0D	; 13
  e0:	2a 95       	dec	r18
  e2:	f1 f7       	brne	.-4      	; 0xe0 <_Z7set_dachj+0xc>
  e4:	00 00       	nop
	} else {
		
		dac_mux_address = DAC_MUX_EN1;
	}
	_delay_us(2); //AD5556 DAC has 0.5 us settling time. 1 us wasn't long enough for transitions from 10V to 0V
	DAC_MUX |= (1<<dac_mux_address); //enable multiplexer
  e6:	40 91 da 00 	lds	r20, 0x00DA
  ea:	21 e0       	ldi	r18, 0x01	; 1
  ec:	30 e0       	ldi	r19, 0x00	; 0
  ee:	88 30       	cpi	r24, 0x08	; 8
  f0:	10 f4       	brcc	.+4      	; 0xf6 <_Z7set_dachj+0x22>
  f2:	20 e0       	ldi	r18, 0x00	; 0
  f4:	30 e0       	ldi	r19, 0x00	; 0
  f6:	81 e0       	ldi	r24, 0x01	; 1
  f8:	90 e0       	ldi	r25, 0x00	; 0
  fa:	02 c0       	rjmp	.+4      	; 0x100 <_Z7set_dachj+0x2c>
  fc:	88 0f       	add	r24, r24
  fe:	99 1f       	adc	r25, r25
 100:	2a 95       	dec	r18
 102:	e2 f7       	brpl	.-8      	; 0xfc <_Z7set_dachj+0x28>
 104:	94 2f       	mov	r25, r20
 106:	98 2b       	or	r25, r24
 108:	ea ed       	ldi	r30, 0xDA	; 218
 10a:	f0 e0       	ldi	r31, 0x00	; 0
 10c:	90 83       	st	Z, r25
 10e:	22 e4       	ldi	r18, 0x42	; 66
 110:	2a 95       	dec	r18
 112:	f1 f7       	brne	.-4      	; 0x110 <_Z7set_dachj+0x3c>
 114:	00 c0       	rjmp	.+0      	; 0x116 <_Z7set_dachj+0x42>
	_delay_us(10); //wait for S&H cap to charge - need to figure out how to do this more efficiently
	DAC_MUX &= ~(1<<dac_mux_address); //disable multiplexer
 116:	90 81       	ld	r25, Z
 118:	80 95       	com	r24
 11a:	89 23       	and	r24, r25
 11c:	80 83       	st	Z, r24
	
}
 11e:	08 95       	ret

00000120 <_Z11display_DECjh>:


void display_DEC(uint16_t number, uint8_t digit)
{
 120:	cf 93       	push	r28
 122:	df 93       	push	r29
 124:	cd b7       	in	r28, 0x3d	; 61
 126:	de b7       	in	r29, 0x3e	; 62
 128:	2a 97       	sbiw	r28, 0x0a	; 10
 12a:	0f b6       	in	r0, 0x3f	; 63
 12c:	f8 94       	cli
 12e:	de bf       	out	0x3e, r29	; 62
 130:	0f be       	out	0x3f, r0	; 63
 132:	cd bf       	out	0x3d, r28	; 61
		SEVEN,
		EIGHT,
		NINE,
		
		
	};
 134:	de 01       	movw	r26, r28
 136:	11 96       	adiw	r26, 0x01	; 1
 138:	e0 e0       	ldi	r30, 0x00	; 0
 13a:	f1 e0       	ldi	r31, 0x01	; 1
 13c:	3a e0       	ldi	r19, 0x0A	; 10
 13e:	01 90       	ld	r0, Z+
 140:	0d 92       	st	X+, r0
 142:	31 50       	subi	r19, 0x01	; 1
 144:	e1 f7       	brne	.-8      	; 0x13e <_Z11display_DECjh+0x1e>
	
	//clear cathode bits
	DATA_BUS = 0xFF; //set bits for cathode (current sinks, active LOW)
 146:	3f ef       	ldi	r19, 0xFF	; 255
 148:	32 b9       	out	0x02, r19	; 2
	//latch data to cathode lines
	DISPLAY_PORT |= (1<<DISP_CATHODE_LATCH);
 14a:	ea ed       	ldi	r30, 0xDA	; 218
 14c:	f0 e0       	ldi	r31, 0x00	; 0
 14e:	30 81       	ld	r19, Z
 150:	30 61       	ori	r19, 0x10	; 16
 152:	30 83       	st	Z, r19
	DISPLAY_PORT &= ~(1<<DISP_CATHODE_LATCH);
 154:	30 81       	ld	r19, Z
 156:	3f 7e       	andi	r19, 0xEF	; 239
 158:	30 83       	st	Z, r19
	
	//set anode bit
	DATA_BUS = digit;
 15a:	62 b9       	out	0x02, r22	; 2
	//latch data to anode lines
	DISPLAY_PORT |= (1<<DISP_ANODE_LATCH);
 15c:	30 81       	ld	r19, Z
 15e:	30 62       	ori	r19, 0x20	; 32
 160:	30 83       	st	Z, r19
	DISPLAY_PORT &= ~(1<<DISP_ANODE_LATCH);
 162:	30 81       	ld	r19, Z
 164:	3f 7d       	andi	r19, 0xDF	; 223
 166:	30 83       	st	Z, r19

	
	//determine cathode byte based on digit to display
	uint8_t cathode_byte;
	
	switch(digit) {
 168:	62 30       	cpi	r22, 0x02	; 2
 16a:	f9 f0       	breq	.+62     	; 0x1aa <_Z11display_DECjh+0x8a>
 16c:	63 30       	cpi	r22, 0x03	; 3
 16e:	18 f4       	brcc	.+6      	; 0x176 <_Z11display_DECjh+0x56>
 170:	61 30       	cpi	r22, 0x01	; 1
 172:	a1 f5       	brne	.+104    	; 0x1dc <_Z11display_DECjh+0xbc>
 174:	0d c0       	rjmp	.+26     	; 0x190 <_Z11display_DECjh+0x70>
 176:	64 30       	cpi	r22, 0x04	; 4
 178:	29 f1       	breq	.+74     	; 0x1c4 <_Z11display_DECjh+0xa4>
 17a:	68 30       	cpi	r22, 0x08	; 8
 17c:	79 f5       	brne	.+94     	; 0x1dc <_Z11display_DECjh+0xbc>
		
		case ONES:
		cathode_byte = DEC[(number % 10)]; //print first decimal digit
 17e:	6a e0       	ldi	r22, 0x0A	; 10
 180:	70 e0       	ldi	r23, 0x00	; 0
 182:	0e 94 2d 03 	call	0x65a	; 0x65a <__udivmodhi4>
 186:	fe 01       	movw	r30, r28
 188:	e8 0f       	add	r30, r24
 18a:	f9 1f       	adc	r31, r25
 18c:	21 81       	ldd	r18, Z+1	; 0x01
		break;
 18e:	26 c0       	rjmp	.+76     	; 0x1dc <_Z11display_DECjh+0xbc>
		
		case TENS:
		cathode_byte = DEC[((number % 100) / 10)]; //print second decimal digit
 190:	64 e6       	ldi	r22, 0x64	; 100
 192:	70 e0       	ldi	r23, 0x00	; 0
 194:	0e 94 2d 03 	call	0x65a	; 0x65a <__udivmodhi4>
 198:	6a e0       	ldi	r22, 0x0A	; 10
 19a:	70 e0       	ldi	r23, 0x00	; 0
 19c:	0e 94 2d 03 	call	0x65a	; 0x65a <__udivmodhi4>
 1a0:	fe 01       	movw	r30, r28
 1a2:	e6 0f       	add	r30, r22
 1a4:	f7 1f       	adc	r31, r23
 1a6:	21 81       	ldd	r18, Z+1	; 0x01
		break;
 1a8:	19 c0       	rjmp	.+50     	; 0x1dc <_Z11display_DECjh+0xbc>
		
		case HUNDS:
		cathode_byte = DEC[((number % 1000) / 100)]; //print third decimal digit
 1aa:	68 ee       	ldi	r22, 0xE8	; 232
 1ac:	73 e0       	ldi	r23, 0x03	; 3
 1ae:	0e 94 2d 03 	call	0x65a	; 0x65a <__udivmodhi4>
 1b2:	64 e6       	ldi	r22, 0x64	; 100
 1b4:	70 e0       	ldi	r23, 0x00	; 0
 1b6:	0e 94 2d 03 	call	0x65a	; 0x65a <__udivmodhi4>
 1ba:	fe 01       	movw	r30, r28
 1bc:	e6 0f       	add	r30, r22
 1be:	f7 1f       	adc	r31, r23
 1c0:	21 81       	ldd	r18, Z+1	; 0x01
		break;
 1c2:	0c c0       	rjmp	.+24     	; 0x1dc <_Z11display_DECjh+0xbc>
		
		case THOUS:
		cathode_byte = DEC[((number % 10000) / 1000)]; //print fourth decimal digit
 1c4:	60 e1       	ldi	r22, 0x10	; 16
 1c6:	77 e2       	ldi	r23, 0x27	; 39
 1c8:	0e 94 2d 03 	call	0x65a	; 0x65a <__udivmodhi4>
 1cc:	68 ee       	ldi	r22, 0xE8	; 232
 1ce:	73 e0       	ldi	r23, 0x03	; 3
 1d0:	0e 94 2d 03 	call	0x65a	; 0x65a <__udivmodhi4>
 1d4:	fe 01       	movw	r30, r28
 1d6:	e6 0f       	add	r30, r22
 1d8:	f7 1f       	adc	r31, r23
 1da:	21 81       	ldd	r18, Z+1	; 0x01
		break;
		
	}
	
	//set cathode byte
	DATA_BUS = ~(cathode_byte); //set bits for cathode (current sinks, active LOW)
 1dc:	20 95       	com	r18
 1de:	22 b9       	out	0x02, r18	; 2
	//latch data to cathode lines
	DISPLAY_PORT |= (1<<DISP_CATHODE_LATCH);
 1e0:	ea ed       	ldi	r30, 0xDA	; 218
 1e2:	f0 e0       	ldi	r31, 0x00	; 0
 1e4:	80 81       	ld	r24, Z
 1e6:	80 61       	ori	r24, 0x10	; 16
 1e8:	80 83       	st	Z, r24
	DISPLAY_PORT &= ~(1<<DISP_CATHODE_LATCH);
 1ea:	80 81       	ld	r24, Z
 1ec:	8f 7e       	andi	r24, 0xEF	; 239
 1ee:	80 83       	st	Z, r24
	
	//DATA_BUS = 0; //clear DATA_BUS before return
}
 1f0:	2a 96       	adiw	r28, 0x0a	; 10
 1f2:	0f b6       	in	r0, 0x3f	; 63
 1f4:	f8 94       	cli
 1f6:	de bf       	out	0x3e, r29	; 62
 1f8:	0f be       	out	0x3f, r0	; 63
 1fa:	cd bf       	out	0x3d, r28	; 61
 1fc:	df 91       	pop	r29
 1fe:	cf 91       	pop	r28
 200:	08 95       	ret

00000202 <_Z8setupADCv>:

void setupADC(void)
{
	//ADCSRA |= (1<<ADPS2) | (1<<ADPS1) | (1<<ADPS0); //set ADC clock to 156.25 KHz for 20 MHz clock
	//ADCSRA |= (1<<ADPS2) | (1<<ADPS1); //set ADC clock to 312.5 KHz for 20 MHz clock
	ADCSRA |= (1<<ADPS2);// | (1<<ADPS0); //set ADC clock to 1.25 MHz for 20 MHz clock
 202:	ea e7       	ldi	r30, 0x7A	; 122
 204:	f0 e0       	ldi	r31, 0x00	; 0
 206:	80 81       	ld	r24, Z
 208:	84 60       	ori	r24, 0x04	; 4
 20a:	80 83       	st	Z, r24
	ADMUX |= (1<<REFS0); //set ADC reference to AVCC (+5V)
 20c:	ac e7       	ldi	r26, 0x7C	; 124
 20e:	b0 e0       	ldi	r27, 0x00	; 0
 210:	8c 91       	ld	r24, X
 212:	80 64       	ori	r24, 0x40	; 64
 214:	8c 93       	st	X, r24
	//MUX2:0 is 000 by default in ADMUX
	//ADMUX &= ~(1<<MUX0); //set ADC multiplexer to read ADC0 (PF0 on PORTF, pin 97)
	
	//ADCSRA |= (1<<ADATE); //set ADC in free running mode
	
	DIDR0 |= 0x01; //disable digital input buffer for ADC0
 216:	ae e7       	ldi	r26, 0x7E	; 126
 218:	b0 e0       	ldi	r27, 0x00	; 0
 21a:	8c 91       	ld	r24, X
 21c:	81 60       	ori	r24, 0x01	; 1
 21e:	8c 93       	st	X, r24
	
	ADCSRA |= (1<<ADEN); //enable ADC
 220:	80 81       	ld	r24, Z
 222:	80 68       	ori	r24, 0x80	; 128
 224:	80 83       	st	Z, r24
	//adc_value = ADCL;
	//adc_value = adc_value | (ADCH <<8);
	//adc_previous = adc_value;
	//PORTH |= (1<<POTMUX_EN0); //set POTMUX_EN0
	
}
 226:	08 95       	ret

00000228 <__vector_5>:

ISR (TIMER2_OVF_vect) { //main scanning interrupt handler
 228:	1f 92       	push	r1
 22a:	0f 92       	push	r0
 22c:	0f b6       	in	r0, 0x3f	; 63
 22e:	0f 92       	push	r0
 230:	11 24       	eor	r1, r1
 232:	8f 92       	push	r8
 234:	9f 92       	push	r9
 236:	af 92       	push	r10
 238:	bf 92       	push	r11
 23a:	cf 92       	push	r12
 23c:	df 92       	push	r13
 23e:	ef 92       	push	r14
 240:	ff 92       	push	r15
 242:	0f 93       	push	r16
 244:	1f 93       	push	r17
 246:	2f 93       	push	r18
 248:	3f 93       	push	r19
 24a:	4f 93       	push	r20
 24c:	5f 93       	push	r21
 24e:	6f 93       	push	r22
 250:	7f 93       	push	r23
 252:	8f 93       	push	r24
 254:	9f 93       	push	r25
 256:	af 93       	push	r26
 258:	bf 93       	push	r27
 25a:	cf 93       	push	r28
 25c:	df 93       	push	r29
 25e:	ef 93       	push	r30
 260:	ff 93       	push	r31
	
	display_DEC(tune_offset, digit[place]);
 262:	80 91 1e 01 	lds	r24, 0x011E
 266:	90 91 1f 01 	lds	r25, 0x011F
 26a:	e0 91 24 01 	lds	r30, 0x0124
 26e:	f0 e0       	ldi	r31, 0x00	; 0
 270:	e6 5f       	subi	r30, 0xF6	; 246
 272:	fe 4f       	sbci	r31, 0xFE	; 254
 274:	60 81       	ld	r22, Z
 276:	0e 94 90 00 	call	0x120	; 0x120 <_Z11display_DECjh>
			//adc_value = adc_sum>>2; //right shift by 2 to convert 14 bit sum to 12 bit result
	
				
	//	} else {
			//DATA_BUS = 0;
			for (int i = 0; i <=15; i++)
 27a:	00 e0       	ldi	r16, 0x00	; 0
 27c:	10 e0       	ldi	r17, 0x00	; 0
				//NEED TO HAVE ONE CHANNEL GROUNDED TO RESET MULTIPLEXER INPUT - NOT IF DELAY BETWEEN SETTING CHANNEL ADDRESS ON MUX AND 
				//READING POT IS SUFFICIENTLY LONG. 2us IS ENOUGH TO PRODUCE >1-2 mV OFFSET FROM FULL SWEEP OF PREVIOUS POT CHANNEL
				//DATA_BUS = 0; //set multiplexer to pot 0, kept at GND				

				//_delay_us(4); //2 us is minimum delay required to produce mux channel cross talk of <= 1 bit. Still need to see if this is affected by S&H			
				ADCSRA |= (1<<ADSC); //start ADC conversion
 27e:	ca e7       	ldi	r28, 0x7A	; 122
 280:	d0 e0       	ldi	r29, 0x00	; 0
				while ((ADCSRA & (1<<ADSC))); //wait for ADC conversion to complete (13 cycles of ADC clock) - need to figure out what to do with this time - would interrupt be more efficient?
				//note that ADSC reads HIGH as long as conversion is in progress, goes LOW when conversion is complete
			
								
				//adc_previous = adc_value;
				adc_value = ADCL;
 282:	0f 2e       	mov	r0, r31
 284:	f8 e7       	ldi	r31, 0x78	; 120
 286:	af 2e       	mov	r10, r31
 288:	bb 24       	eor	r11, r11
 28a:	f0 2d       	mov	r31, r0
				adc_value = adc_value | (ADCH <<8);
 28c:	0f 2e       	mov	r0, r31
 28e:	f9 e7       	ldi	r31, 0x79	; 121
 290:	8f 2e       	mov	r8, r31
 292:	99 24       	eor	r9, r9
 294:	f0 2d       	mov	r31, r0
				
				//set up mux for next ADC read
				POT_MUX &= ~(1<<POTMUX_EN0); //clear POTMUX_EN0 to select input on U2
 296:	0f 2e       	mov	r0, r31
 298:	fa ed       	ldi	r31, 0xDA	; 218
 29a:	ef 2e       	mov	r14, r31
 29c:	ff 24       	eor	r15, r15
 29e:	f0 2d       	mov	r31, r0
				//NEED TO HAVE ONE CHANNEL GROUNDED TO RESET MULTIPLEXER INPUT - NOT IF DELAY BETWEEN SETTING CHANNEL ADDRESS ON MUX AND 
				//READING POT IS SUFFICIENTLY LONG. 2us IS ENOUGH TO PRODUCE >1-2 mV OFFSET FROM FULL SWEEP OF PREVIOUS POT CHANNEL
				//DATA_BUS = 0; //set multiplexer to pot 0, kept at GND				

				//_delay_us(4); //2 us is minimum delay required to produce mux channel cross talk of <= 1 bit. Still need to see if this is affected by S&H			
				ADCSRA |= (1<<ADSC); //start ADC conversion
 2a0:	88 81       	ld	r24, Y
 2a2:	80 64       	ori	r24, 0x40	; 64
 2a4:	88 83       	st	Y, r24
				while ((ADCSRA & (1<<ADSC))); //wait for ADC conversion to complete (13 cycles of ADC clock) - need to figure out what to do with this time - would interrupt be more efficient?
 2a6:	88 81       	ld	r24, Y
 2a8:	86 fd       	sbrc	r24, 6
 2aa:	fd cf       	rjmp	.-6      	; 0x2a6 <__vector_5+0x7e>
				//note that ADSC reads HIGH as long as conversion is in progress, goes LOW when conversion is complete
			
								
				//adc_previous = adc_value;
				adc_value = ADCL;
 2ac:	f5 01       	movw	r30, r10
 2ae:	80 81       	ld	r24, Z
 2b0:	90 e0       	ldi	r25, 0x00	; 0
 2b2:	90 93 21 01 	sts	0x0121, r25
 2b6:	80 93 20 01 	sts	0x0120, r24
				adc_value = adc_value | (ADCH <<8);
 2ba:	f4 01       	movw	r30, r8
 2bc:	20 81       	ld	r18, Z
 2be:	80 91 20 01 	lds	r24, 0x0120
 2c2:	90 91 21 01 	lds	r25, 0x0121
 2c6:	d2 2e       	mov	r13, r18
 2c8:	cc 24       	eor	r12, r12
 2ca:	8c 29       	or	r24, r12
 2cc:	9d 29       	or	r25, r13
 2ce:	90 93 21 01 	sts	0x0121, r25
 2d2:	80 93 20 01 	sts	0x0120, r24
				
				//set up mux for next ADC read
				POT_MUX &= ~(1<<POTMUX_EN0); //clear POTMUX_EN0 to select input on U2
 2d6:	f7 01       	movw	r30, r14
 2d8:	80 81       	ld	r24, Z
 2da:	8f 7b       	andi	r24, 0xBF	; 191
 2dc:	80 83       	st	Z, r24
				DATA_BUS = i; //set pot mux address on databus				
 2de:	20 2f       	mov	r18, r16
 2e0:	02 b9       	out	0x02, r16	; 2
				//dac_channel[i] = adc_value << 4; //convert 10 bit ADC value to 14 bit DAC value
				//set_dac(i, dac_channel[i]); //set DAC
				//for testing, set one DAC S&H channel to a fixed value and measure it as flanking S&H channels are swept from 0-10V
				//currently using this to set OSCA_INIT_CV and do fine tuning
				if (i == 4 || i == 13) 
 2e2:	04 30       	cpi	r16, 0x04	; 4
 2e4:	11 05       	cpc	r17, r1
 2e6:	19 f0       	breq	.+6      	; 0x2ee <__vector_5+0xc6>
 2e8:	0d 30       	cpi	r16, 0x0D	; 13
 2ea:	11 05       	cpc	r17, r1
 2ec:	71 f5       	brne	.+92     	; 0x34a <__vector_5+0x122>
				{
					uint16_t tune_value = 6303;//9759; //init CV offset of about -5.8V
					if (adc_value >= 512) {set_dac(i,(tune_value + (adc_value - 512))); tune_offset = adc_value - 512;} else {set_dac(i,(tune_value - (512- adc_value))); tune_offset = adc_value;}
 2ee:	80 91 20 01 	lds	r24, 0x0120
 2f2:	90 91 21 01 	lds	r25, 0x0121
 2f6:	f2 e0       	ldi	r31, 0x02	; 2
 2f8:	80 30       	cpi	r24, 0x00	; 0
 2fa:	9f 07       	cpc	r25, r31
 2fc:	a0 f0       	brcs	.+40     	; 0x326 <__vector_5+0xfe>
 2fe:	60 91 20 01 	lds	r22, 0x0120
 302:	70 91 21 01 	lds	r23, 0x0121
 306:	61 56       	subi	r22, 0x61	; 97
 308:	79 4e       	sbci	r23, 0xE9	; 233
 30a:	82 2f       	mov	r24, r18
 30c:	0e 94 6a 00 	call	0xd4	; 0xd4 <_Z7set_dachj>
 310:	80 91 20 01 	lds	r24, 0x0120
 314:	90 91 21 01 	lds	r25, 0x0121
 318:	80 50       	subi	r24, 0x00	; 0
 31a:	92 40       	sbci	r25, 0x02	; 2
 31c:	90 93 1f 01 	sts	0x011F, r25
 320:	80 93 1e 01 	sts	0x011E, r24
 324:	1f c0       	rjmp	.+62     	; 0x364 <__vector_5+0x13c>
 326:	60 91 20 01 	lds	r22, 0x0120
 32a:	70 91 21 01 	lds	r23, 0x0121
 32e:	61 56       	subi	r22, 0x61	; 97
 330:	79 4e       	sbci	r23, 0xE9	; 233
 332:	82 2f       	mov	r24, r18
 334:	0e 94 6a 00 	call	0xd4	; 0xd4 <_Z7set_dachj>
 338:	80 91 20 01 	lds	r24, 0x0120
 33c:	90 91 21 01 	lds	r25, 0x0121
 340:	90 93 1f 01 	sts	0x011F, r25
 344:	80 93 1e 01 	sts	0x011E, r24
 348:	0d c0       	rjmp	.+26     	; 0x364 <__vector_5+0x13c>
					//set_dac(i, tune_value);
					
				} else {set_dac(i, adc_value << 4);}
 34a:	60 91 20 01 	lds	r22, 0x0120
 34e:	70 91 21 01 	lds	r23, 0x0121
 352:	62 95       	swap	r22
 354:	72 95       	swap	r23
 356:	70 7f       	andi	r23, 0xF0	; 240
 358:	76 27       	eor	r23, r22
 35a:	60 7f       	andi	r22, 0xF0	; 240
 35c:	76 27       	eor	r23, r22
 35e:	80 2f       	mov	r24, r16
 360:	0e 94 6a 00 	call	0xd4	; 0xd4 <_Z7set_dachj>
                //set_dac(i, adc_value << 4);
				POT_MUX |= (1<<POTMUX_EN0); //disable pot multiplexer U2
 364:	f7 01       	movw	r30, r14
 366:	80 81       	ld	r24, Z
 368:	80 64       	ori	r24, 0x40	; 64
 36a:	80 83       	st	Z, r24
			//adc_value = adc_sum>>2; //right shift by 2 to convert 14 bit sum to 12 bit result
	
				
	//	} else {
			//DATA_BUS = 0;
			for (int i = 0; i <=15; i++)
 36c:	0f 5f       	subi	r16, 0xFF	; 255
 36e:	1f 4f       	sbci	r17, 0xFF	; 255
 370:	00 31       	cpi	r16, 0x10	; 16
 372:	11 05       	cpc	r17, r1
 374:	09 f0       	breq	.+2      	; 0x378 <__vector_5+0x150>
 376:	94 cf       	rjmp	.-216    	; 0x2a0 <__vector_5+0x78>
                //set_dac(i, adc_value << 4);
				POT_MUX |= (1<<POTMUX_EN0); //disable pot multiplexer U2
				//POT_MUX |= (1<<POTMUX_EN1); //needed to set this for some reason otherwise was reading both pot demuxers at once - need to check this out.	
						
			}			
			DAC_CTRL &= ~(1<<DAC_RS); //reset DAC
 378:	a1 98       	cbi	0x14, 1	; 20
			DAC_CTRL |= (1<<DAC_RS);	
 37a:	a1 9a       	sbi	0x14, 1	; 20
		//if (deflection <= 1) adc_value = adc_previous;
	//}				


	//do SPI read/write every 5 interrupts (16.5 ms)
	if (switch_timer++ == 5)
 37c:	80 91 25 01 	lds	r24, 0x0125
 380:	98 2f       	mov	r25, r24
 382:	9f 5f       	subi	r25, 0xFF	; 255
 384:	90 93 25 01 	sts	0x0125, r25
 388:	85 30       	cpi	r24, 0x05	; 5
 38a:	09 f0       	breq	.+2      	; 0x38e <__vector_5+0x166>
 38c:	e9 c0       	rjmp	.+466    	; 0x560 <__vector_5+0x338>
	{
		switch_timer = 0;
 38e:	10 92 25 01 	sts	0x0125, r1
		
		
		SPI_PORT |= SPI_SW_LATCH;
 392:	2d 9a       	sbi	0x05, 5	; 5
		((sw_latch_five >> ISW2_SW) & 1) << ISW2_LED |
		((sw_latch_five >> ISW3_SW) & 1) << ISW3_LED |
		((sw_latch_five >> ISW5_SW) & 1) << ISW5_LED |
		((sw_latch_five >> ISW6_SW) & 1) << ISW6_LED |
		((sw_latch_five >> ISW7_SW) & 1) << ISW7_LED |
		ISW8_SW_ON << ISW8_LED; 
 394:	20 91 2a 01 	lds	r18, 0x012A
 398:	60 91 2a 01 	lds	r22, 0x012A
 39c:	80 91 2a 01 	lds	r24, 0x012A
 3a0:	70 91 2a 01 	lds	r23, 0x012A
 3a4:	50 91 2a 01 	lds	r21, 0x012A
 3a8:	40 91 2a 01 	lds	r20, 0x012A
 3ac:	30 91 2a 01 	lds	r19, 0x012A
 3b0:	90 91 2f 01 	lds	r25, 0x012F
 3b4:	71 70       	andi	r23, 0x01	; 1
 3b6:	64 70       	andi	r22, 0x04	; 4
 3b8:	67 2b       	or	r22, r23
 3ba:	50 71       	andi	r21, 0x10	; 16
 3bc:	56 2b       	or	r21, r22
 3be:	40 72       	andi	r20, 0x20	; 32
 3c0:	45 2b       	or	r20, r21
 3c2:	30 74       	andi	r19, 0x40	; 64
 3c4:	34 2b       	or	r19, r20
 3c6:	97 95       	ror	r25
 3c8:	99 27       	eor	r25, r25
 3ca:	97 95       	ror	r25
 3cc:	93 2b       	or	r25, r19
 3ce:	22 1f       	adc	r18, r18
 3d0:	22 27       	eor	r18, r18
 3d2:	22 1f       	adc	r18, r18
 3d4:	22 0f       	add	r18, r18
 3d6:	29 2b       	or	r18, r25
 3d8:	90 e0       	ldi	r25, 0x00	; 0
 3da:	88 0f       	add	r24, r24
 3dc:	99 1f       	adc	r25, r25
 3de:	88 0f       	add	r24, r24
 3e0:	99 1f       	adc	r25, r25
 3e2:	88 70       	andi	r24, 0x08	; 8
 3e4:	90 70       	andi	r25, 0x00	; 0
 3e6:	82 2b       	or	r24, r18
 3e8:	8e bd       	out	0x2e, r24	; 46
		
		while (!(SPSR & (1<<SPIF)));
 3ea:	0d b4       	in	r0, 0x2d	; 45
 3ec:	07 fe       	sbrs	r0, 7
 3ee:	fd cf       	rjmp	.-6      	; 0x3ea <__vector_5+0x1c2>
		
		//Now read SPDR for switch data shifted in from 74XX165 U14
		spi_sw_current_state = SPDR;
 3f0:	8e b5       	in	r24, 0x2e	; 46
 3f2:	80 93 2c 01 	sts	0x012C, r24
		
		spi_sw_current_state ^= spi_sw_previous_state;
 3f6:	80 91 2c 01 	lds	r24, 0x012C
 3fa:	90 91 2b 01 	lds	r25, 0x012B
 3fe:	89 27       	eor	r24, r25
 400:	80 93 2c 01 	sts	0x012C, r24
		spi_sw_previous_state ^= spi_sw_current_state;
 404:	80 91 2b 01 	lds	r24, 0x012B
 408:	90 91 2c 01 	lds	r25, 0x012C
 40c:	89 27       	eor	r24, r25
 40e:	80 93 2b 01 	sts	0x012B, r24
		spi_sw_current_state &= spi_sw_previous_state;
 412:	80 91 2c 01 	lds	r24, 0x012C
 416:	90 91 2b 01 	lds	r25, 0x012B
 41a:	89 23       	and	r24, r25
 41c:	80 93 2c 01 	sts	0x012C, r24
		
		//toggle switch state 		

		if (spi_sw_current_state & (1<<ISW1_SW)) sw_latch_five ^= (1 << ISW1_SW);
 420:	80 91 2c 01 	lds	r24, 0x012C
 424:	82 ff       	sbrs	r24, 2
 426:	06 c0       	rjmp	.+12     	; 0x434 <__vector_5+0x20c>
 428:	90 91 2a 01 	lds	r25, 0x012A
 42c:	84 e0       	ldi	r24, 0x04	; 4
 42e:	89 27       	eor	r24, r25
 430:	80 93 2a 01 	sts	0x012A, r24
		if (spi_sw_current_state & (1<<ISW2_SW)) {
 434:	80 91 2c 01 	lds	r24, 0x012C
 438:	81 ff       	sbrs	r24, 1
 43a:	08 c0       	rjmp	.+16     	; 0x44c <__vector_5+0x224>
			sw_latch_five ^= (1 << ISW2_SW);
 43c:	90 91 2a 01 	lds	r25, 0x012A
 440:	82 e0       	ldi	r24, 0x02	; 2
 442:	89 27       	eor	r24, r25
 444:	80 93 2a 01 	sts	0x012A, r24
			PINB = (1<<ARP_SYNC_LED);
 448:	80 e8       	ldi	r24, 0x80	; 128
 44a:	83 b9       	out	0x03, r24	; 3
		}				
		if (spi_sw_current_state & (1<<ISW3_SW)) {
 44c:	80 91 2c 01 	lds	r24, 0x012C
 450:	80 ff       	sbrs	r24, 0
 452:	08 c0       	rjmp	.+16     	; 0x464 <__vector_5+0x23c>
			sw_latch_five ^= (1 << ISW3_SW);
 454:	90 91 2a 01 	lds	r25, 0x012A
 458:	81 e0       	ldi	r24, 0x01	; 1
 45a:	89 27       	eor	r24, r25
 45c:	80 93 2a 01 	sts	0x012A, r24
			//sw_latch_five ^= (1 << ISW2_SW);
			//toggle ARP_SYNC LED
			PINB = (1<<ARP_SYNC_LED);
 460:	80 e8       	ldi	r24, 0x80	; 128
 462:	83 b9       	out	0x03, r24	; 3
		}			
		if (spi_sw_current_state & (1<<ISW4_SW))  sw_latch_five ^= (1 << ISW4_SW);	
 464:	80 91 2c 01 	lds	r24, 0x012C
 468:	88 23       	and	r24, r24
 46a:	2c f4       	brge	.+10     	; 0x476 <__vector_5+0x24e>
 46c:	80 91 2a 01 	lds	r24, 0x012A
 470:	80 58       	subi	r24, 0x80	; 128
 472:	80 93 2a 01 	sts	0x012A, r24
		if (spi_sw_current_state & (1<<ISW5_SW)) sw_latch_five ^= (1 << ISW5_SW);
 476:	80 91 2c 01 	lds	r24, 0x012C
 47a:	84 ff       	sbrs	r24, 4
 47c:	06 c0       	rjmp	.+12     	; 0x48a <__vector_5+0x262>
 47e:	90 91 2a 01 	lds	r25, 0x012A
 482:	80 e1       	ldi	r24, 0x10	; 16
 484:	89 27       	eor	r24, r25
 486:	80 93 2a 01 	sts	0x012A, r24
		if (spi_sw_current_state & (1<<ISW6_SW)) sw_latch_five ^= (1 << ISW6_SW);
 48a:	80 91 2c 01 	lds	r24, 0x012C
 48e:	85 ff       	sbrs	r24, 5
 490:	06 c0       	rjmp	.+12     	; 0x49e <__vector_5+0x276>
 492:	90 91 2a 01 	lds	r25, 0x012A
 496:	80 e2       	ldi	r24, 0x20	; 32
 498:	89 27       	eor	r24, r25
 49a:	80 93 2a 01 	sts	0x012A, r24
		if (spi_sw_current_state & (1<<ISW7_SW)) sw_latch_five ^= (1 << ISW7_SW);
 49e:	80 91 2c 01 	lds	r24, 0x012C
 4a2:	86 ff       	sbrs	r24, 6
 4a4:	06 c0       	rjmp	.+12     	; 0x4b2 <__vector_5+0x28a>
 4a6:	90 91 2a 01 	lds	r25, 0x012A
 4aa:	80 e4       	ldi	r24, 0x40	; 64
 4ac:	89 27       	eor	r24, r25
 4ae:	80 93 2a 01 	sts	0x012A, r24
		//SHIFT 4th BYTE
		SPDR = 0; //no LEDs connected in current test set up
 4b2:	1e bc       	out	0x2e, r1	; 46
		while (!(SPSR & (1<<SPIF)));
 4b4:	0d b4       	in	r0, 0x2d	; 45
 4b6:	07 fe       	sbrs	r0, 7
 4b8:	fd cf       	rjmp	.-6      	; 0x4b4 <__vector_5+0x28c>
		//Now read SPDR for switch data shifted in from 74XX165 (U9)
		//check if ISW12_SW bit is set
		if (SPDR >> 5 & 1)
 4ba:	0e b4       	in	r0, 0x2e	; 46
 4bc:	05 fe       	sbrs	r0, 5
 4be:	04 c0       	rjmp	.+8      	; 0x4c8 <__vector_5+0x2a0>
		{
			ISW12_SW_ON = 1;
 4c0:	81 e0       	ldi	r24, 0x01	; 1
 4c2:	80 93 32 01 	sts	0x0132, r24
 4c6:	02 c0       	rjmp	.+4      	; 0x4cc <__vector_5+0x2a4>
		}
		else
		{
			ISW12_SW_ON = 0;
 4c8:	10 92 32 01 	sts	0x0132, r1
		}
		//check if ISW13_SW bit is set
		if (SPDR >> 6 & 1)
 4cc:	0e b4       	in	r0, 0x2e	; 46
 4ce:	06 fe       	sbrs	r0, 6
 4d0:	04 c0       	rjmp	.+8      	; 0x4da <__vector_5+0x2b2>
		{
			ISW13_SW_ON = 1;
 4d2:	81 e0       	ldi	r24, 0x01	; 1
 4d4:	80 93 31 01 	sts	0x0131, r24
 4d8:	02 c0       	rjmp	.+4      	; 0x4de <__vector_5+0x2b6>
		}
		else
		{
			ISW13_SW_ON = 0;
 4da:	10 92 31 01 	sts	0x0131, r1
		}
		
		//SHIFT 3th BYTE
		SPDR = 0;
 4de:	1e bc       	out	0x2e, r1	; 46
		while (!(SPSR & (1<<SPIF)));
 4e0:	0d b4       	in	r0, 0x2d	; 45
 4e2:	07 fe       	sbrs	r0, 7
 4e4:	fd cf       	rjmp	.-6      	; 0x4e0 <__vector_5+0x2b8>

		//SHIFT 2th BYTE
		SPDR = 0;
 4e6:	1e bc       	out	0x2e, r1	; 46
		while (!(SPSR & (1<<SPIF)));
 4e8:	0d b4       	in	r0, 0x2d	; 45
 4ea:	07 fe       	sbrs	r0, 7
 4ec:	fd cf       	rjmp	.-6      	; 0x4e8 <__vector_5+0x2c0>
		
		//SHIFT 1st BYTE
		//SPDR = (ISW12_SW_ON << 2) | ISW11_LED; //TURN ON ISW12 (if ISW12_SW is ON) and ISW11 LEDs, both on 74XX595 U8, first shift register in chain
		SPDR = (ISW12_SW_ON <<2) | (ISW13_SW_ON << 7); //turn on ISW12 if ISW12_SW is ON, turn ISW11 (MSB of first shift register chain) if ISW13_SW is ON
 4ee:	80 91 32 01 	lds	r24, 0x0132
 4f2:	90 91 31 01 	lds	r25, 0x0131
 4f6:	97 95       	ror	r25
 4f8:	99 27       	eor	r25, r25
 4fa:	97 95       	ror	r25
 4fc:	88 0f       	add	r24, r24
 4fe:	88 0f       	add	r24, r24
 500:	89 2b       	or	r24, r25
 502:	8e bd       	out	0x2e, r24	; 46
		//Wait for SPI shift to complete
		while (!(SPSR & (1<<SPIF)));
 504:	0d b4       	in	r0, 0x2d	; 45
 506:	07 fe       	sbrs	r0, 7
 508:	fd cf       	rjmp	.-6      	; 0x504 <__vector_5+0x2dc>
		
		//Toggle LED_LATCH to shift data to 74HC595 shift register outputs
		
		SPI_LATCH_PORT &= ~LED_LATCH;
 50a:	ed ed       	ldi	r30, 0xDD	; 221
 50c:	f0 e0       	ldi	r31, 0x00	; 0
 50e:	80 81       	ld	r24, Z
 510:	87 7f       	andi	r24, 0xF7	; 247
 512:	80 83       	st	Z, r24
		SPI_LATCH_PORT |= LED_LATCH;
 514:	80 81       	ld	r24, Z
 516:	88 60       	ori	r24, 0x08	; 8
 518:	80 83       	st	Z, r24
		
		//clear SPI_SW_LATCH
		SPI_PORT &= ~SPI_SW_LATCH;	
 51a:	2d 98       	cbi	0x05, 5	; 5
		//this toggle code works, but I haven't figured out how it works
		//source: http://forum.allaboutcircuits.com/threads/help-with-programming-uc-toggle-led-using-one-switch.51602/
		current_sw_state = SWITCH_PORT;
 51c:	8f b1       	in	r24, 0x0f	; 15
 51e:	80 93 2d 01 	sts	0x012D, r24
		current_sw_state ^= previous_sw_state;
 522:	80 91 2d 01 	lds	r24, 0x012D
 526:	90 91 2e 01 	lds	r25, 0x012E
 52a:	89 27       	eor	r24, r25
 52c:	80 93 2d 01 	sts	0x012D, r24
		previous_sw_state ^= current_sw_state;
 530:	80 91 2e 01 	lds	r24, 0x012E
 534:	90 91 2d 01 	lds	r25, 0x012D
 538:	89 27       	eor	r24, r25
 53a:	80 93 2e 01 	sts	0x012E, r24
		current_sw_state &= previous_sw_state;
 53e:	80 91 2d 01 	lds	r24, 0x012D
 542:	90 91 2e 01 	lds	r25, 0x012E
 546:	89 23       	and	r24, r25
 548:	80 93 2d 01 	sts	0x012D, r24
		
		if (current_sw_state & (1<<ISW8_SW)) 
 54c:	80 91 2d 01 	lds	r24, 0x012D
 550:	82 ff       	sbrs	r24, 2
 552:	06 c0       	rjmp	.+12     	; 0x560 <__vector_5+0x338>
		{
			ISW8_SW_ON ^= 1 << 0; //toggle switch state
 554:	90 91 2f 01 	lds	r25, 0x012F
 558:	81 e0       	ldi	r24, 0x01	; 1
 55a:	89 27       	eor	r24, r25
 55c:	80 93 2f 01 	sts	0x012F, r24
	}
	
	

	//increment digit display place
	if (place++ == 3) //post increment
 560:	80 91 24 01 	lds	r24, 0x0124
 564:	98 2f       	mov	r25, r24
 566:	9f 5f       	subi	r25, 0xFF	; 255
 568:	90 93 24 01 	sts	0x0124, r25
 56c:	83 30       	cpi	r24, 0x03	; 3
 56e:	11 f4       	brne	.+4      	; 0x574 <__vector_5+0x34c>
	{
		place = 0;
 570:	10 92 24 01 	sts	0x0124, r1
	}
	

	
}	
 574:	ff 91       	pop	r31
 576:	ef 91       	pop	r30
 578:	df 91       	pop	r29
 57a:	cf 91       	pop	r28
 57c:	bf 91       	pop	r27
 57e:	af 91       	pop	r26
 580:	9f 91       	pop	r25
 582:	8f 91       	pop	r24
 584:	7f 91       	pop	r23
 586:	6f 91       	pop	r22
 588:	5f 91       	pop	r21
 58a:	4f 91       	pop	r20
 58c:	3f 91       	pop	r19
 58e:	2f 91       	pop	r18
 590:	1f 91       	pop	r17
 592:	0f 91       	pop	r16
 594:	ff 90       	pop	r15
 596:	ef 90       	pop	r14
 598:	df 90       	pop	r13
 59a:	cf 90       	pop	r12
 59c:	bf 90       	pop	r11
 59e:	af 90       	pop	r10
 5a0:	9f 90       	pop	r9
 5a2:	8f 90       	pop	r8
 5a4:	0f 90       	pop	r0
 5a6:	0f be       	out	0x3f, r0	; 63
 5a8:	0f 90       	pop	r0
 5aa:	1f 90       	pop	r1
 5ac:	18 95       	reti

000005ae <main>:


int main(void)
{
	//turn off JTAG so all outputs of PORTC can be used
	MCUCR = (1<<JTD);
 5ae:	80 e8       	ldi	r24, 0x80	; 128
 5b0:	85 bf       	out	0x35, r24	; 53
	MCUCR = (1<<JTD);
 5b2:	85 bf       	out	0x35, r24	; 53
		
	//SET PORTB PIN 7 (PB7) as OUTPUT
	DDRB |= (1<<ARP_SYNC_LED);
 5b4:	27 9a       	sbi	0x04, 7	; 4
	
	DDRF |= (1<<GATE); //set gate as output
 5b6:	81 9a       	sbi	0x10, 1	; 16
	//PORTF |= (1<<GATE); //turn gate on for testing
	
	//SET SPI_DATA_OUT and SPI_CLK and SPI_SW_LATCH pins as outputs
	//also set Slave Select (PB0) as output just to ensure it doesn't interfere with SPI communication (currently floating)
	//ACTUALLY, Slave Select ***MUST*** be set as output. Leaving it floating without setting its data direction bit breaks SPI!
	DDRB |= (SPI_DATA_OUT | SPI_CLK | SPI_SW_LATCH |(1<<PB0));
 5b8:	84 b1       	in	r24, 0x04	; 4
 5ba:	87 62       	ori	r24, 0x27	; 39
 5bc:	84 b9       	out	0x04, r24	; 4
	
	//SET SPI_EN and LED_LATCH and VCO_SW_LATCH pins as outputs
	DDRJ |= (SPI_EN | LED_LATCH | (1<<VCO_SW_LATCH));
 5be:	ec ed       	ldi	r30, 0xDC	; 220
 5c0:	f0 e0       	ldi	r31, 0x00	; 0
 5c2:	80 81       	ld	r24, Z
 5c4:	8c 64       	ori	r24, 0x4C	; 76
 5c6:	80 83       	st	Z, r24
	
	//SET SPI_DATA_OUT and SPI_CLK and SPI_SW_LATCH outputs LOW
	SPI_PORT &= ~(SPI_DATA_OUT | SPI_CLK | SPI_SW_LATCH);
 5c8:	85 b1       	in	r24, 0x05	; 5
 5ca:	89 7d       	andi	r24, 0xD9	; 217
 5cc:	85 b9       	out	0x05, r24	; 5
	
	//SET SPI_EN LOW (active) and LED_LATCH LOW (active)
	SPI_LATCH_PORT &= ~(SPI_EN | LED_LATCH);
 5ce:	cd ed       	ldi	r28, 0xDD	; 221
 5d0:	d0 e0       	ldi	r29, 0x00	; 0
 5d2:	88 81       	ld	r24, Y
 5d4:	83 7f       	andi	r24, 0xF3	; 243
 5d6:	88 83       	st	Y, r24
	
	//SET UP SPI
	SPCR = (1<<SPE) | (1<<MSTR); //Start SPI as MASTER
 5d8:	80 e5       	ldi	r24, 0x50	; 80
 5da:	8c bd       	out	0x2c, r24	; 44
	
	//Pull LED_LATCH LOW
	SPI_LATCH_PORT &= ~LED_LATCH;
 5dc:	88 81       	ld	r24, Y
 5de:	87 7f       	andi	r24, 0xF7	; 247
 5e0:	88 83       	st	Y, r24
	////Wait for SPI shift to complete
	//while (!(SPSR & (1<<SPIF)));
	
	//Toggle LED_LATCH to shift data to 74HC595 shift register outputs
	
	SPI_LATCH_PORT &= ~LED_LATCH;
 5e2:	88 81       	ld	r24, Y
 5e4:	87 7f       	andi	r24, 0xF7	; 247
 5e6:	88 83       	st	Y, r24
	SPI_LATCH_PORT |= LED_LATCH;
 5e8:	88 81       	ld	r24, Y
 5ea:	88 60       	ori	r24, 0x08	; 8
 5ec:	88 83       	st	Y, r24
	
	
	DDRH |= (1<<POTMUX_EN0) | (1<<POTMUX_EN1); //set POTMUX_EN pins as outputs
 5ee:	a9 ed       	ldi	r26, 0xD9	; 217
 5f0:	b0 e0       	ldi	r27, 0x00	; 0
 5f2:	8c 91       	ld	r24, X
 5f4:	80 6c       	ori	r24, 0xC0	; 192
 5f6:	8c 93       	st	X, r24
	POT_MUX |= (1<<POTMUX_EN0) | (1<<POTMUX_EN1); //set POTMUX_EN pins HIGH (active LOW)
 5f8:	ea ed       	ldi	r30, 0xDA	; 218
 5fa:	f0 e0       	ldi	r31, 0x00	; 0
 5fc:	80 81       	ld	r24, Z
 5fe:	80 6c       	ori	r24, 0xC0	; 192
 600:	80 83       	st	Z, r24
	//POT_MUX |= (1<<POTMUX_EN1);
	
	//set up LED display
	DDRA |= 0b11111111; //set all lines or DATA_BUS to outputs
 602:	81 b1       	in	r24, 0x01	; 1
 604:	8f ef       	ldi	r24, 0xFF	; 255
 606:	81 b9       	out	0x01, r24	; 1
	DATA_BUS |= 0b11111111; //set all DATA_BUS lines to HIGH (cathodes OFF)
 608:	92 b1       	in	r25, 0x02	; 2
 60a:	82 b9       	out	0x02, r24	; 2
	DDRH |= (1<<DISP_CATHODE_LATCH) | (1<<DISP_ANODE_LATCH); //set display latches to outputs
 60c:	8c 91       	ld	r24, X
 60e:	80 63       	ori	r24, 0x30	; 48
 610:	8c 93       	st	X, r24
	DISPLAY_PORT &= ~(1<<DISP_ANODE_LATCH | 1<< DISP_CATHODE_LATCH); //set DISP latches to LOW (inactive)
 612:	80 81       	ld	r24, Z
 614:	8f 7c       	andi	r24, 0xCF	; 207
 616:	80 83       	st	Z, r24
	
	//set up switch port
	DDRF &= ~(1<<ISW8_SW); //set ISW8_SW pin as input
 618:	82 98       	cbi	0x10, 2	; 16
	//setup ADC, free running for now. Not sure if this is the way it should be done. Look into benefits of one-shot ADC
    setupADC();	
 61a:	0e 94 01 01 	call	0x202	; 0x202 <_Z8setupADCv>
	
	//setup DAC
	setupDAC();
 61e:	0e 94 51 00 	call	0xa2	; 0xa2 <_Z8setupDACv>
	
	//set up main timer interrupt
	//this generates the main scanning interrupt
	TCCR2A |= (1<<CS22) | (1<<CS21); //Timer2 20MHz/256 prescaler
 622:	e0 eb       	ldi	r30, 0xB0	; 176
 624:	f0 e0       	ldi	r31, 0x00	; 0
 626:	80 81       	ld	r24, Z
 628:	86 60       	ori	r24, 0x06	; 6
 62a:	80 83       	st	Z, r24
	TIMSK2 |= (1<<TOIE2); //enable Timer2 overflow interrupt over flows approx. every 3ms	
 62c:	e0 e7       	ldi	r30, 0x70	; 112
 62e:	f0 e0       	ldi	r31, 0x00	; 0
 630:	80 81       	ld	r24, Z
 632:	81 60       	ori	r24, 0x01	; 1
 634:	80 83       	st	Z, r24
	sei(); //enable global interrupts
 636:	78 94       	sei
	//POT_MUX |= (1<<POTMUX_EN1); //set pot mux en1 again - it is getting cleared somewhere	
	VCO_SW_LATCH_PORT &= ~(1<<VCO_SW_LATCH);
 638:	88 81       	ld	r24, Y
 63a:	8f 7b       	andi	r24, 0xBF	; 191
 63c:	88 83       	st	Y, r24
	//enable output on VCO analog switch latch:
	//switch latch: bit 0: A SAW 1: A PULSE 2: A TRI 3: SYNC 4: B MOD 5: B PULSE 6: SAW 7: B TRI
	DATA_BUS = 0b11010101; //enable VCO1 SAW
 63e:	85 ed       	ldi	r24, 0xD5	; 213
 640:	82 b9       	out	0x02, r24	; 2
	VCO_SW_LATCH_PORT |= (1<<VCO_SW_LATCH);
 642:	88 81       	ld	r24, Y
 644:	80 64       	ori	r24, 0x40	; 64
 646:	88 83       	st	Y, r24
 648:	86 e0       	ldi	r24, 0x06	; 6
 64a:	8a 95       	dec	r24
 64c:	f1 f7       	brne	.-4      	; 0x64a <main+0x9c>
 64e:	00 c0       	rjmp	.+0      	; 0x650 <main+0xa2>
	_delay_us(1);
	VCO_SW_LATCH_PORT &= ~(1<<VCO_SW_LATCH);
 650:	88 81       	ld	r24, Y
 652:	8f 7b       	andi	r24, 0xBF	; 191
 654:	88 83       	st	Y, r24
	DATA_BUS = 0;
 656:	12 b8       	out	0x02, r1	; 2
 658:	ff cf       	rjmp	.-2      	; 0x658 <main+0xaa>

0000065a <__udivmodhi4>:
 65a:	aa 1b       	sub	r26, r26
 65c:	bb 1b       	sub	r27, r27
 65e:	51 e1       	ldi	r21, 0x11	; 17
 660:	07 c0       	rjmp	.+14     	; 0x670 <__udivmodhi4_ep>

00000662 <__udivmodhi4_loop>:
 662:	aa 1f       	adc	r26, r26
 664:	bb 1f       	adc	r27, r27
 666:	a6 17       	cp	r26, r22
 668:	b7 07       	cpc	r27, r23
 66a:	10 f0       	brcs	.+4      	; 0x670 <__udivmodhi4_ep>
 66c:	a6 1b       	sub	r26, r22
 66e:	b7 0b       	sbc	r27, r23

00000670 <__udivmodhi4_ep>:
 670:	88 1f       	adc	r24, r24
 672:	99 1f       	adc	r25, r25
 674:	5a 95       	dec	r21
 676:	a9 f7       	brne	.-22     	; 0x662 <__udivmodhi4_loop>
 678:	80 95       	com	r24
 67a:	90 95       	com	r25
 67c:	bc 01       	movw	r22, r24
 67e:	cd 01       	movw	r24, r26
 680:	08 95       	ret

00000682 <_exit>:
 682:	f8 94       	cli

00000684 <__stop_program>:
 684:	ff cf       	rjmp	.-2      	; 0x684 <__stop_program>
